target datalayout = "e-m:e-p270:32:32-p271:32:32-p272:64:64-i64:64-i128:128-f80:128-n8:16:32:64-S128"
target triple = "x86_64-unknown-linux-gnu"

%"class.llvh::StringRef" = type { ptr, i64 }

@.str.32 = private unnamed_addr constant [3 x i8] c"\0A\0D\00", align 1

; Function Attrs: mustprogress nounwind uwtable
define linkonce_odr hidden noundef ptr @_ZNK4llvh9StringRef5beginEv(ptr noundef nonnull align 8 dereferenceable(16) %this) #0 comdat align 2 {
entry:
  %this.addr = alloca ptr, align 8
  store ptr %this, ptr %this.addr, align 8
  %this1 = load ptr, ptr %this.addr, align 8
  %Data = getelementptr inbounds %"class.llvh::StringRef", ptr %this1, i32 0, i32 0
  %0 = load ptr, ptr %Data, align 8
  ret ptr %0
}

; Function Attrs: mustprogress nounwind uwtable
define linkonce_odr hidden noundef signext i8 @_ZNK4llvh9StringRefixEm(ptr noundef nonnull align 8 dereferenceable(16) %this, i64 noundef %Index) #0 comdat align 2 {
entry:
  %this.addr = alloca ptr, align 8
  %Index.addr = alloca i64, align 8
  store ptr %this, ptr %this.addr, align 8
  store i64 %Index, ptr %Index.addr, align 8
  %this1 = load ptr, ptr %this.addr, align 8
  %Data = getelementptr inbounds %"class.llvh::StringRef", ptr %this1, i32 0, i32 0
  %0 = load ptr, ptr %Data, align 8
  %1 = load i64, ptr %Index.addr, align 8
  %arrayidx = getelementptr inbounds i8, ptr %0, i64 %1
  %2 = load i8, ptr %arrayidx, align 1
  ret i8 %2
}

; Function Attrs: mustprogress nounwind uwtable
define linkonce_odr noundef nonnull align 8 dereferenceable(8) ptr @_ZSt3minImERKT_S2_S2_(ptr noundef nonnull align 8 dereferenceable(8) %__a, ptr noundef nonnull align 8 dereferenceable(8) %__b) #0 comdat {
entry:
  %retval = alloca ptr, align 8
  %__a.addr = alloca ptr, align 8
  %__b.addr = alloca ptr, align 8
  store ptr %__a, ptr %__a.addr, align 8
  store ptr %__b, ptr %__b.addr, align 8
  %0 = load ptr, ptr %__b.addr, align 8
  %1 = load i64, ptr %0, align 8
  %2 = load ptr, ptr %__a.addr, align 8
  %3 = load i64, ptr %2, align 8
  %cmp = icmp ult i64 %1, %3
  br i1 %cmp, label %if.then, label %if.end

if.then:                                          ; preds = %entry
  %4 = load ptr, ptr %__b.addr, align 8
  store ptr %4, ptr %retval, align 8
  br label %return

if.end:                                           ; preds = %entry
  %5 = load ptr, ptr %__a.addr, align 8
  store ptr %5, ptr %retval, align 8
  br label %return

return:                                           ; preds = %if.end, %if.then
  %6 = load ptr, ptr %retval, align 8
  ret ptr %6
}

; Function Attrs: mustprogress nounwind uwtable
define internal noundef i32 @_ZL23CountNumNewlinesBetweenN4llvh9StringRefERPKc(ptr %Range.coerce0, i64 %Range.coerce1, ptr noundef nonnull align 8 dereferenceable(8) %FirstNewLine) #0 {
entry:
  %this.addr.i67 = alloca ptr, align 8
  %data.addr.i68 = alloca ptr, align 8
  %length.addr.i69 = alloca i64, align 8
  %this.addr.i62 = alloca ptr, align 8
  %data.addr.i63 = alloca ptr, align 8
  %length.addr.i64 = alloca i64, align 8
  %this.addr.i59 = alloca ptr, align 8
  %data.addr.i = alloca ptr, align 8
  %length.addr.i = alloca i64, align 8
  %this.addr.i55 = alloca ptr, align 8
  %Str.addr.i = alloca ptr, align 8
  %this.addr.i52 = alloca ptr, align 8
  %retval.i40 = alloca %"class.llvh::StringRef", align 8
  %this.addr.i41 = alloca ptr, align 8
  %Start.addr.i42 = alloca i64, align 8
  %N.addr.i43 = alloca i64, align 8
  %ref.tmp.i44 = alloca i64, align 8
  %retval.i28 = alloca %"class.llvh::StringRef", align 8
  %this.addr.i29 = alloca ptr, align 8
  %Start.addr.i30 = alloca i64, align 8
  %N.addr.i31 = alloca i64, align 8
  %ref.tmp.i32 = alloca i64, align 8
  %retval.i = alloca %"class.llvh::StringRef", align 8
  %this.addr.i25 = alloca ptr, align 8
  %Start.addr.i = alloca i64, align 8
  %N.addr.i = alloca i64, align 8
  %ref.tmp.i = alloca i64, align 8
  %this.addr.i = alloca ptr, align 8
  %Range = alloca %"class.llvh::StringRef", align 8
  %FirstNewLine.addr = alloca ptr, align 8
  %NumNewLines = alloca i32, align 4
  %ref.tmp = alloca %"class.llvh::StringRef", align 8
  %agg.tmp = alloca %"class.llvh::StringRef", align 8
  %ref.tmp16 = alloca %"class.llvh::StringRef", align 8
  %ref.tmp19 = alloca %"class.llvh::StringRef", align 8
  %0 = getelementptr inbounds { ptr, i64 }, ptr %Range, i32 0, i32 0
  store ptr %Range.coerce0, ptr %0, align 8
  %1 = getelementptr inbounds { ptr, i64 }, ptr %Range, i32 0, i32 1
  store i64 %Range.coerce1, ptr %1, align 8
  store ptr %FirstNewLine, ptr %FirstNewLine.addr, align 8
  store i32 0, ptr %NumNewLines, align 4
  br label %while.body

while.body:                                       ; preds = %if.end24, %entry
  store ptr %agg.tmp, ptr %this.addr.i55, align 8
  store ptr @.str.32, ptr %Str.addr.i, align 8
  %this1.i56 = load ptr, ptr %this.addr.i55, align 8
  %2 = load ptr, ptr %Str.addr.i, align 8
  store ptr %2, ptr %this1.i56, align 8
  %Length.i57 = getelementptr inbounds %"class.llvh::StringRef", ptr %this1.i56, i32 0, i32 1
  %3 = load ptr, ptr %Str.addr.i, align 8
  %tobool.i = icmp ne ptr %3, null
  br i1 %tobool.i, label %cond.true.i, label %cond.false.i

cond.true.i:                                      ; preds = %while.body
  %4 = load ptr, ptr %Str.addr.i, align 8
  %call.i58 = call i64 @strlen(ptr noundef %4) #12
  br label %_ZN4llvh9StringRefC2EPKc.exit

cond.false.i:                                     ; preds = %while.body
  br label %_ZN4llvh9StringRefC2EPKc.exit

_ZN4llvh9StringRefC2EPKc.exit:                    ; preds = %cond.false.i, %cond.true.i
  %cond.i = phi i64 [ %call.i58, %cond.true.i ], [ 0, %cond.false.i ]
  store i64 %cond.i, ptr %Length.i57, align 8
  %5 = getelementptr inbounds { ptr, i64 }, ptr %agg.tmp, i32 0, i32 0
  %6 = load ptr, ptr %5, align 8
  %7 = getelementptr inbounds { ptr, i64 }, ptr %agg.tmp, i32 0, i32 1
  %8 = load i64, ptr %7, align 8
  %call = call noundef i64 @_ZNK4llvh9StringRef13find_first_ofES0_m(ptr noundef nonnull align 8 dereferenceable(16) %Range, ptr %6, i64 %8, i64 noundef 0)
  store ptr %Range, ptr %this.addr.i41, align 8
  store i64 %call, ptr %Start.addr.i42, align 8
  store i64 -1, ptr %N.addr.i43, align 8
  %this1.i45 = load ptr, ptr %this.addr.i41, align 8
  %Length.i46 = getelementptr inbounds %"class.llvh::StringRef", ptr %this1.i45, i32 0, i32 1
  %call.i47 = call noundef nonnull align 8 dereferenceable(8) ptr @_ZSt3minImERKT_S2_S2_(ptr noundef nonnull align 8 dereferenceable(8) %Start.addr.i42, ptr noundef nonnull align 8 dereferenceable(8) %Length.i46)
  %9 = load i64, ptr %call.i47, align 8
  store i64 %9, ptr %Start.addr.i42, align 8
  %10 = load ptr, ptr %this1.i45, align 8
  %11 = load i64, ptr %Start.addr.i42, align 8
  %add.ptr.i48 = getelementptr inbounds i8, ptr %10, i64 %11
  %Length2.i49 = getelementptr inbounds %"class.llvh::StringRef", ptr %this1.i45, i32 0, i32 1
  %12 = load i64, ptr %Length2.i49, align 8
  %13 = load i64, ptr %Start.addr.i42, align 8
  %sub.i50 = sub i64 %12, %13
  store i64 %sub.i50, ptr %ref.tmp.i44, align 8
  %call3.i51 = call noundef nonnull align 8 dereferenceable(8) ptr @_ZSt3minImERKT_S2_S2_(ptr noundef nonnull align 8 dereferenceable(8) %N.addr.i43, ptr noundef nonnull align 8 dereferenceable(8) %ref.tmp.i44)
  %14 = load i64, ptr %call3.i51, align 8
  store ptr %retval.i40, ptr %this.addr.i59, align 8
  store ptr %add.ptr.i48, ptr %data.addr.i, align 8
  store i64 %14, ptr %length.addr.i, align 8
  %this1.i60 = load ptr, ptr %this.addr.i59, align 8
  %15 = load ptr, ptr %data.addr.i, align 8
  store ptr %15, ptr %this1.i60, align 8
  %Length.i61 = getelementptr inbounds %"class.llvh::StringRef", ptr %this1.i60, i32 0, i32 1
  %16 = load i64, ptr %length.addr.i, align 8
  store i64 %16, ptr %Length.i61, align 8
  %17 = load { ptr, i64 }, ptr %retval.i40, align 8
  %18 = getelementptr inbounds { ptr, i64 }, ptr %ref.tmp, i32 0, i32 0
  %19 = extractvalue { ptr, i64 } %17, 0
  store ptr %19, ptr %18, align 8
  %20 = getelementptr inbounds { ptr, i64 }, ptr %ref.tmp, i32 0, i32 1
  %21 = extractvalue { ptr, i64 } %17, 1
  store i64 %21, ptr %20, align 8
  call void @llvm.memcpy.p0.p0.i64(ptr align 8 %Range, ptr align 8 %ref.tmp, i64 16, i1 false)
  store ptr %Range, ptr %this.addr.i, align 8
  %this1.i = load ptr, ptr %this.addr.i, align 8
  %Length.i = getelementptr inbounds %"class.llvh::StringRef", ptr %this1.i, i32 0, i32 1
  %22 = load i64, ptr %Length.i, align 8
  %cmp.i = icmp eq i64 %22, 0
  br i1 %cmp.i, label %if.then, label %if.end

if.then:                                          ; preds = %_ZN4llvh9StringRefC2EPKc.exit
  %23 = load i32, ptr %NumNewLines, align 4
  ret i32 %23

if.end:                                           ; preds = %_ZN4llvh9StringRefC2EPKc.exit
  %24 = load i32, ptr %NumNewLines, align 4
  %inc = add i32 %24, 1
  store i32 %inc, ptr %NumNewLines, align 4
  store ptr %Range, ptr %this.addr.i52, align 8
  %this1.i53 = load ptr, ptr %this.addr.i52, align 8
  %Length.i54 = getelementptr inbounds %"class.llvh::StringRef", ptr %this1.i53, i32 0, i32 1
  %25 = load i64, ptr %Length.i54, align 8
  %cmp = icmp ugt i64 %25, 1
  br i1 %cmp, label %land.lhs.true, label %if.end18

land.lhs.true:                                    ; preds = %if.end
  %call4 = call noundef signext i8 @_ZNK4llvh9StringRefixEm(ptr noundef nonnull align 8 dereferenceable(16) %Range, i64 noundef 1)
  %conv = sext i8 %call4 to i32
  %cmp5 = icmp eq i32 %conv, 10
  br i1 %cmp5, label %land.lhs.true9, label %lor.lhs.false

lor.lhs.false:                                    ; preds = %land.lhs.true
  %call6 = call noundef signext i8 @_ZNK4llvh9StringRefixEm(ptr noundef nonnull align 8 dereferenceable(16) %Range, i64 noundef 1)
  %conv7 = sext i8 %call6 to i32
  %cmp8 = icmp eq i32 %conv7, 13
  br i1 %cmp8, label %land.lhs.true9, label %if.end18

land.lhs.true9:                                   ; preds = %lor.lhs.false, %land.lhs.true
  %call10 = call noundef signext i8 @_ZNK4llvh9StringRefixEm(ptr noundef nonnull align 8 dereferenceable(16) %Range, i64 noundef 0)
  %conv11 = sext i8 %call10 to i32
  %call12 = call noundef signext i8 @_ZNK4llvh9StringRefixEm(ptr noundef nonnull align 8 dereferenceable(16) %Range, i64 noundef 1)
  %conv13 = sext i8 %call12 to i32
  %cmp14 = icmp ne i32 %conv11, %conv13
  br i1 %cmp14, label %if.then15, label %if.end18

if.then15:                                        ; preds = %land.lhs.true9
  store ptr %Range, ptr %this.addr.i29, align 8
  store i64 1, ptr %Start.addr.i30, align 8
  store i64 -1, ptr %N.addr.i31, align 8
  %this1.i33 = load ptr, ptr %this.addr.i29, align 8
  %Length.i34 = getelementptr inbounds %"class.llvh::StringRef", ptr %this1.i33, i32 0, i32 1
  %call.i35 = call noundef nonnull align 8 dereferenceable(8) ptr @_ZSt3minImERKT_S2_S2_(ptr noundef nonnull align 8 dereferenceable(8) %Start.addr.i30, ptr noundef nonnull align 8 dereferenceable(8) %Length.i34)
  %26 = load i64, ptr %call.i35, align 8
  store i64 %26, ptr %Start.addr.i30, align 8
  %27 = load ptr, ptr %this1.i33, align 8
  %28 = load i64, ptr %Start.addr.i30, align 8
  %add.ptr.i36 = getelementptr inbounds i8, ptr %27, i64 %28
  %Length2.i37 = getelementptr inbounds %"class.llvh::StringRef", ptr %this1.i33, i32 0, i32 1
  %29 = load i64, ptr %Length2.i37, align 8
  %30 = load i64, ptr %Start.addr.i30, align 8
  %sub.i38 = sub i64 %29, %30
  store i64 %sub.i38, ptr %ref.tmp.i32, align 8
  %call3.i39 = call noundef nonnull align 8 dereferenceable(8) ptr @_ZSt3minImERKT_S2_S2_(ptr noundef nonnull align 8 dereferenceable(8) %N.addr.i31, ptr noundef nonnull align 8 dereferenceable(8) %ref.tmp.i32)
  %31 = load i64, ptr %call3.i39, align 8
  store ptr %retval.i28, ptr %this.addr.i62, align 8
  store ptr %add.ptr.i36, ptr %data.addr.i63, align 8
  store i64 %31, ptr %length.addr.i64, align 8
  %this1.i65 = load ptr, ptr %this.addr.i62, align 8
  %32 = load ptr, ptr %data.addr.i63, align 8
  store ptr %32, ptr %this1.i65, align 8
  %Length.i66 = getelementptr inbounds %"class.llvh::StringRef", ptr %this1.i65, i32 0, i32 1
  %33 = load i64, ptr %length.addr.i64, align 8
  store i64 %33, ptr %Length.i66, align 8
  %34 = load { ptr, i64 }, ptr %retval.i28, align 8
  %35 = getelementptr inbounds { ptr, i64 }, ptr %ref.tmp16, i32 0, i32 0
  %36 = extractvalue { ptr, i64 } %34, 0
  store ptr %36, ptr %35, align 8
  %37 = getelementptr inbounds { ptr, i64 }, ptr %ref.tmp16, i32 0, i32 1
  %38 = extractvalue { ptr, i64 } %34, 1
  store i64 %38, ptr %37, align 8
  call void @llvm.memcpy.p0.p0.i64(ptr align 8 %Range, ptr align 8 %ref.tmp16, i64 16, i1 false)
  br label %if.end18

if.end18:                                         ; preds = %if.then15, %land.lhs.true9, %lor.lhs.false, %if.end
  store ptr %Range, ptr %this.addr.i25, align 8
  store i64 1, ptr %Start.addr.i, align 8
  store i64 -1, ptr %N.addr.i, align 8
  %this1.i26 = load ptr, ptr %this.addr.i25, align 8
  %Length.i27 = getelementptr inbounds %"class.llvh::StringRef", ptr %this1.i26, i32 0, i32 1
  %call.i = call noundef nonnull align 8 dereferenceable(8) ptr @_ZSt3minImERKT_S2_S2_(ptr noundef nonnull align 8 dereferenceable(8) %Start.addr.i, ptr noundef nonnull align 8 dereferenceable(8) %Length.i27)
  %39 = load i64, ptr %call.i, align 8
  store i64 %39, ptr %Start.addr.i, align 8
  %40 = load ptr, ptr %this1.i26, align 8
  %41 = load i64, ptr %Start.addr.i, align 8
  %add.ptr.i = getelementptr inbounds i8, ptr %40, i64 %41
  %Length2.i = getelementptr inbounds %"class.llvh::StringRef", ptr %this1.i26, i32 0, i32 1
  %42 = load i64, ptr %Length2.i, align 8
  %43 = load i64, ptr %Start.addr.i, align 8
  %sub.i = sub i64 %42, %43
  store i64 %sub.i, ptr %ref.tmp.i, align 8
  %call3.i = call noundef nonnull align 8 dereferenceable(8) ptr @_ZSt3minImERKT_S2_S2_(ptr noundef nonnull align 8 dereferenceable(8) %N.addr.i, ptr noundef nonnull align 8 dereferenceable(8) %ref.tmp.i)
  %44 = load i64, ptr %call3.i, align 8
  store ptr %retval.i, ptr %this.addr.i67, align 8
  store ptr %add.ptr.i, ptr %data.addr.i68, align 8
  store i64 %44, ptr %length.addr.i69, align 8
  %this1.i70 = load ptr, ptr %this.addr.i67, align 8
  %45 = load ptr, ptr %data.addr.i68, align 8
  store ptr %45, ptr %this1.i70, align 8
  %Length.i71 = getelementptr inbounds %"class.llvh::StringRef", ptr %this1.i70, i32 0, i32 1
  %46 = load i64, ptr %length.addr.i69, align 8
  store i64 %46, ptr %Length.i71, align 8
  %47 = load { ptr, i64 }, ptr %retval.i, align 8
  %48 = getelementptr inbounds { ptr, i64 }, ptr %ref.tmp19, i32 0, i32 0
  %49 = extractvalue { ptr, i64 } %47, 0
  store ptr %49, ptr %48, align 8
  %50 = getelementptr inbounds { ptr, i64 }, ptr %ref.tmp19, i32 0, i32 1
  %51 = extractvalue { ptr, i64 } %47, 1
  store i64 %51, ptr %50, align 8
  call void @llvm.memcpy.p0.p0.i64(ptr align 8 %Range, ptr align 8 %ref.tmp19, i64 16, i1 false)
  %52 = load i32, ptr %NumNewLines, align 4
  %cmp21 = icmp eq i32 %52, 1
  br i1 %cmp21, label %if.then22, label %if.end24

if.then22:                                        ; preds = %if.end18
  %call23 = call noundef ptr @_ZNK4llvh9StringRef5beginEv(ptr noundef nonnull align 8 dereferenceable(16) %Range)
  %53 = load ptr, ptr %FirstNewLine.addr, align 8
  store ptr %call23, ptr %53, align 8
  br label %if.end24

if.end24:                                         ; preds = %if.then22, %if.end18
  br label %while.body, !llvm.loop !18
}