; Function Attrs: mustprogress nounwind uwtable
define internal fastcc noundef i32 @_ZL23CountNumNewlinesBetweenN4llvh9StringRefERPKc(ptr %Range.coerce0, i64 %Range.coerce1, ptr nocapture noundef nonnull writeonly align 8 dereferenceable(8) %FirstNewLine) unnamed_addr #0 {
entry:
  %Range = alloca %"class.llvh::StringRef", align 8
  store ptr %Range.coerce0, ptr %Range, align 8
  %0 = getelementptr inbounds i8, ptr %Range, i64 8
  store i64 %Range.coerce1, ptr %0, align 8
  %call48 = call noundef i64 @_ZNK4llvh9StringRef13find_first_ofES0_m(ptr noundef nonnull align 8 dereferenceable(16) %Range, ptr nonnull @.str.32, i64 2, i64 noundef 0) #18
  %1 = load i64, ptr %0, align 8
  %.sroa.speculated4649 = call i64 @llvm.umin.i64(i64 %1, i64 %call48)
  %2 = load ptr, ptr %Range, align 8
  %add.ptr.i4850 = getelementptr inbounds i8, ptr %2, i64 %.sroa.speculated4649
  %sub.i5051 = sub i64 %1, %.sroa.speculated4649
  store ptr %add.ptr.i4850, ptr %Range, align 8
  store i64 %sub.i5051, ptr %0, align 8
  %cmp.i.not52 = icmp ugt i64 %1, %call48
  br i1 %cmp.i.not52, label %if.end, label %if.then

if.then:                                          ; preds = %if.end24, %entry
  %NumNewLines.0.lcssa = phi i32 [ 0, %entry ], [ %inc, %if.end24 ]
  ret i32 %NumNewLines.0.lcssa

if.end:                                           ; preds = %entry, %if.end24
  %sub.i5055 = phi i64 [ %sub.i50, %if.end24 ], [ %sub.i5051, %entry ]
  %add.ptr.i4854 = phi ptr [ %add.ptr.i48, %if.end24 ], [ %add.ptr.i4850, %entry ]
  %NumNewLines.053 = phi i32 [ %inc, %if.end24 ], [ 0, %entry ]
  %inc = add i32 %NumNewLines.053, 1
  %cmp.not = icmp eq i64 %sub.i5055, 1
  br i1 %cmp.not, label %if.end18, label %land.lhs.true

land.lhs.true:                                    ; preds = %if.end
  %arrayidx.i = getelementptr inbounds i8, ptr %add.ptr.i4854, i64 1
  %3 = load i8, ptr %arrayidx.i, align 1
  switch i8 %3, label %if.end18 [
    i8 10, label %land.lhs.true9
    i8 13, label %land.lhs.true9
  ]

land.lhs.true9:                                   ; preds = %land.lhs.true, %land.lhs.true
  %4 = load i8, ptr %add.ptr.i4854, align 1
  %cmp14.not = icmp ne i8 %4, %3
  %spec.select = select i1 %cmp14.not, ptr %arrayidx.i, ptr %add.ptr.i4854
  %sub.i38 = sext i1 %cmp14.not to i64
  %spec.select56 = add i64 %sub.i5055, %sub.i38
  br label %if.end18

if.end18:                                         ; preds = %land.lhs.true9, %land.lhs.true, %if.end
  %5 = phi ptr [ %add.ptr.i4854, %land.lhs.true ], [ %add.ptr.i4854, %if.end ], [ %spec.select, %land.lhs.true9 ]
  %6 = phi i64 [ %sub.i5055, %land.lhs.true ], [ 1, %if.end ], [ %spec.select56, %land.lhs.true9 ]
  %cmp.i26 = icmp ne i64 %6, 0
  %.sroa.speculated32 = zext i1 %cmp.i26 to i64
  %add.ptr.i = getelementptr inbounds i8, ptr %5, i64 %.sroa.speculated32
  %sub.i = sub i64 %6, %.sroa.speculated32
  store ptr %add.ptr.i, ptr %Range, align 8
  store i64 %sub.i, ptr %0, align 8
  %cmp21 = icmp eq i32 %NumNewLines.053, 0
  br i1 %cmp21, label %if.then22, label %if.end24

if.then22:                                        ; preds = %if.end18
  store ptr %add.ptr.i, ptr %FirstNewLine, align 8
  br label %if.end24

if.end24:                                         ; preds = %if.then22, %if.end18
  %call = call noundef i64 @_ZNK4llvh9StringRef13find_first_ofES0_m(ptr noundef nonnull align 8 dereferenceable(16) %Range, ptr nonnull @.str.32, i64 2, i64 noundef 0) #18
  %7 = load i64, ptr %0, align 8
  %.sroa.speculated46 = call i64 @llvm.umin.i64(i64 %7, i64 %call)
  %8 = load ptr, ptr %Range, align 8
  %add.ptr.i48 = getelementptr inbounds i8, ptr %8, i64 %.sroa.speculated46
  %sub.i50 = sub i64 %7, %.sroa.speculated46
  store ptr %add.ptr.i48, ptr %Range, align 8
  store i64 %sub.i50, ptr %0, align 8
  %cmp.i.not = icmp ugt i64 %7, %call
  br i1 %cmp.i.not, label %if.end, label %if.then, !llvm.loop !137
}